target datalayout = "e-m:e-p270:32:32-p271:32:32-p272:64:64-i64:64-i128:128-f80:128-n8:16:32:64-S128"
target triple = "x86_64-pc-linux-gnu"

%struct.pmix_tma = type { ptr, ptr, ptr, ptr, ptr, ptr, ptr, ptr }
%struct.pmix_coord = type { i8, ptr, i64 }
%struct.pmix_geometry = type { i64, ptr, ptr, ptr, i64 }

; Function Attrs: inlinehint nounwind uwtable
define internal void @pmix_bfrops_base_tma_coord_destruct(ptr noundef %0, ptr noundef %1) #3 {
  %3 = alloca ptr, align 8
  %4 = alloca ptr, align 8
  store ptr %0, ptr %3, align 8, !tbaa !150
  store ptr %1, ptr %4, align 8, !tbaa !23
  %5 = load ptr, ptr %3, align 8, !tbaa !150
  %6 = icmp ne ptr null, %5
  br i1 %6, label %7, label %24

7:                                                ; preds = %2
  %8 = load ptr, ptr %3, align 8, !tbaa !150
  %9 = getelementptr inbounds nuw %struct.pmix_coord, ptr %8, i32 0, i32 0
  store i8 0, ptr %9, align 8, !tbaa !259
  %10 = load ptr, ptr %3, align 8, !tbaa !150
  %11 = getelementptr inbounds nuw %struct.pmix_coord, ptr %10, i32 0, i32 1
  %12 = load ptr, ptr %11, align 8, !tbaa !263
  %13 = icmp ne ptr null, %12
  br i1 %13, label %14, label %23

14:                                               ; preds = %7
  %15 = load ptr, ptr %4, align 8, !tbaa !23
  %16 = load ptr, ptr %3, align 8, !tbaa !150
  %17 = getelementptr inbounds nuw %struct.pmix_coord, ptr %16, i32 0, i32 1
  %18 = load ptr, ptr %17, align 8, !tbaa !263
  call void @pmix_tma_free(ptr noundef %15, ptr noundef %18)
  %19 = load ptr, ptr %3, align 8, !tbaa !150
  %20 = getelementptr inbounds nuw %struct.pmix_coord, ptr %19, i32 0, i32 1
  store ptr null, ptr %20, align 8, !tbaa !263
  %21 = load ptr, ptr %3, align 8, !tbaa !150
  %22 = getelementptr inbounds nuw %struct.pmix_coord, ptr %21, i32 0, i32 2
  store i64 0, ptr %22, align 8, !tbaa !262
  br label %23

23:                                               ; preds = %14, %7
  br label %24

24:                                               ; preds = %23, %2
  ret void
}

; Function Attrs: inlinehint nounwind uwtable
define internal void @pmix_bfrops_base_tma_coord_free(ptr noundef %0, i64 noundef %1, ptr noundef %2) #3 {
  %4 = alloca ptr, align 8
  %5 = alloca i64, align 8
  %6 = alloca ptr, align 8
  %7 = alloca i64, align 8
  store ptr %0, ptr %4, align 8, !tbaa !150
  store i64 %1, ptr %5, align 8, !tbaa !25
  store ptr %2, ptr %6, align 8, !tbaa !23
  %8 = load ptr, ptr %4, align 8, !tbaa !150
  %9 = icmp ne ptr null, %8
  br i1 %9, label %10, label %27

10:                                               ; preds = %3
  call void @llvm.lifetime.start.p0(i64 8, ptr %7) #11
  store i64 0, ptr %7, align 8, !tbaa !25
  br label %11

11:                                               ; preds = %21, %10
  %12 = load i64, ptr %7, align 8, !tbaa !25
  %13 = load i64, ptr %5, align 8, !tbaa !25
  %14 = icmp ult i64 %12, %13
  br i1 %14, label %16, label %15

15:                                               ; preds = %11
  call void @llvm.lifetime.end.p0(i64 8, ptr %7) #11
  br label %24

16:                                               ; preds = %11
  %17 = load ptr, ptr %4, align 8, !tbaa !150
  %18 = load i64, ptr %7, align 8, !tbaa !25
  %19 = getelementptr inbounds nuw %struct.pmix_coord, ptr %17, i64 %18
  %20 = load ptr, ptr %6, align 8, !tbaa !23
  call void @pmix_bfrops_base_tma_coord_destruct(ptr noundef %19, ptr noundef %20)
  br label %21

21:                                               ; preds = %16
  %22 = load i64, ptr %7, align 8, !tbaa !25
  %23 = add i64 %22, 1
  store i64 %23, ptr %7, align 8, !tbaa !25
  br label %11, !llvm.loop !264

24:                                               ; preds = %15
  %25 = load ptr, ptr %6, align 8, !tbaa !23
  %26 = load ptr, ptr %4, align 8, !tbaa !150
  call void @pmix_tma_free(ptr noundef %25, ptr noundef %26)
  br label %27

27:                                               ; preds = %24, %3
  ret void
}

; Function Attrs: inlinehint nounwind uwtable
define internal void @pmix_tma_free(ptr noundef %0, ptr noundef %1) #3 {
  %3 = alloca ptr, align 8
  %4 = alloca ptr, align 8
  store ptr %0, ptr %3, align 8, !tbaa !23
  store ptr %1, ptr %4, align 8, !tbaa !8
  %5 = load ptr, ptr %3, align 8, !tbaa !23
  %6 = icmp ne ptr null, %5
  br i1 %6, label %7, label %13

7:                                                ; preds = %2
  %8 = load ptr, ptr %3, align 8, !tbaa !23
  %9 = getelementptr inbounds nuw %struct.pmix_tma, ptr %8, i32 0, i32 5
  %10 = load ptr, ptr %9, align 8, !tbaa !267
  %11 = load ptr, ptr %3, align 8, !tbaa !23
  %12 = load ptr, ptr %4, align 8, !tbaa !8
  call void %10(ptr noundef %11, ptr noundef %12)
  br label %15

13:                                               ; preds = %2
  %14 = load ptr, ptr %4, align 8, !tbaa !8
  call void @free(ptr noundef %14) #11
  br label %15

15:                                               ; preds = %13, %7
  ret void
}

; Function Attrs: inlinehint nounwind uwtable
define internal void @pmix_bfrops_base_tma_geometry_destruct(ptr noundef %0, ptr noundef %1) #3 {
  %3 = alloca ptr, align 8
  %4 = alloca ptr, align 8
  store ptr %0, ptr %3, align 8, !tbaa !161
  store ptr %1, ptr %4, align 8, !tbaa !23
  %5 = load ptr, ptr %3, align 8, !tbaa !161
  %6 = getelementptr inbounds nuw %struct.pmix_geometry, ptr %5, i32 0, i32 1
  %7 = load ptr, ptr %6, align 8, !tbaa !165
  %8 = icmp ne ptr null, %7
  br i1 %8, label %9, label %16

9:                                                ; preds = %2
  %10 = load ptr, ptr %4, align 8, !tbaa !23
  %11 = load ptr, ptr %3, align 8, !tbaa !161
  %12 = getelementptr inbounds nuw %struct.pmix_geometry, ptr %11, i32 0, i32 1
  %13 = load ptr, ptr %12, align 8, !tbaa !165
  call void @pmix_tma_free(ptr noundef %10, ptr noundef %13)
  %14 = load ptr, ptr %3, align 8, !tbaa !161
  %15 = getelementptr inbounds nuw %struct.pmix_geometry, ptr %14, i32 0, i32 1
  store ptr null, ptr %15, align 8, !tbaa !165
  br label %16

16:                                               ; preds = %9, %2
  %17 = load ptr, ptr %3, align 8, !tbaa !161
  %18 = getelementptr inbounds nuw %struct.pmix_geometry, ptr %17, i32 0, i32 2
  %19 = load ptr, ptr %18, align 8, !tbaa !166
  %20 = icmp ne ptr null, %19
  br i1 %20, label %21, label %28

21:                                               ; preds = %16
  %22 = load ptr, ptr %4, align 8, !tbaa !23
  %23 = load ptr, ptr %3, align 8, !tbaa !161
  %24 = getelementptr inbounds nuw %struct.pmix_geometry, ptr %23, i32 0, i32 2
  %25 = load ptr, ptr %24, align 8, !tbaa !166
  call void @pmix_tma_free(ptr noundef %22, ptr noundef %25)
  %26 = load ptr, ptr %3, align 8, !tbaa !161
  %27 = getelementptr inbounds nuw %struct.pmix_geometry, ptr %26, i32 0, i32 2
  store ptr null, ptr %27, align 8, !tbaa !166
  br label %28

28:                                               ; preds = %21, %16
  %29 = load ptr, ptr %3, align 8, !tbaa !161
  %30 = getelementptr inbounds nuw %struct.pmix_geometry, ptr %29, i32 0, i32 3
  %31 = load ptr, ptr %30, align 8, !tbaa !167
  %32 = icmp ne ptr null, %31
  br i1 %32, label %33, label %41

33:                                               ; preds = %28
  %34 = load ptr, ptr %3, align 8, !tbaa !161
  %35 = getelementptr inbounds nuw %struct.pmix_geometry, ptr %34, i32 0, i32 3
  %36 = load ptr, ptr %35, align 8, !tbaa !167
  %37 = load ptr, ptr %3, align 8, !tbaa !161
  %38 = getelementptr inbounds nuw %struct.pmix_geometry, ptr %37, i32 0, i32 4
  %39 = load i64, ptr %38, align 8, !tbaa !168
  %40 = load ptr, ptr %4, align 8, !tbaa !23
  call void @pmix_bfrops_base_tma_coord_free(ptr noundef %36, i64 noundef %39, ptr noundef %40)
  br label %41

41:                                               ; preds = %33, %28
  ret void
}

; Function Attrs: inlinehint nounwind uwtable
define internal void @pmix_bfrops_base_tma_geometry_free(ptr noundef %0, i64 noundef %1, ptr noundef %2) #3 {
  %4 = alloca ptr, align 8
  %5 = alloca i64, align 8
  %6 = alloca ptr, align 8
  %7 = alloca i64, align 8
  store ptr %0, ptr %4, align 8, !tbaa !161
  store i64 %1, ptr %5, align 8, !tbaa !25
  store ptr %2, ptr %6, align 8, !tbaa !23
  %8 = load ptr, ptr %4, align 8, !tbaa !161
  %9 = icmp ne ptr null, %8
  br i1 %9, label %10, label %27

10:                                               ; preds = %3
  call void @llvm.lifetime.start.p0(i64 8, ptr %7) #11
  store i64 0, ptr %7, align 8, !tbaa !25
  br label %11

11:                                               ; preds = %21, %10
  %12 = load i64, ptr %7, align 8, !tbaa !25
  %13 = load i64, ptr %5, align 8, !tbaa !25
  %14 = icmp ult i64 %12, %13
  br i1 %14, label %16, label %15

15:                                               ; preds = %11
  call void @llvm.lifetime.end.p0(i64 8, ptr %7) #11
  br label %24

16:                                               ; preds = %11
  %17 = load ptr, ptr %4, align 8, !tbaa !161
  %18 = load i64, ptr %7, align 8, !tbaa !25
  %19 = getelementptr inbounds nuw %struct.pmix_geometry, ptr %17, i64 %18
  %20 = load ptr, ptr %6, align 8, !tbaa !23
  call void @pmix_bfrops_base_tma_geometry_destruct(ptr noundef %19, ptr noundef %20)
  br label %21

21:                                               ; preds = %16
  %22 = load i64, ptr %7, align 8, !tbaa !25
  %23 = add i64 %22, 1
  store i64 %23, ptr %7, align 8, !tbaa !25
  br label %11, !llvm.loop !269

24:                                               ; preds = %15
  %25 = load ptr, ptr %6, align 8, !tbaa !23
  %26 = load ptr, ptr %4, align 8, !tbaa !161
  call void @pmix_tma_free(ptr noundef %25, ptr noundef %26)
  br label %27

27:                                               ; preds = %24, %3
  ret void
}