; Function Attrs: inlinehint nounwind uwtable
define internal fastcc void @pmix_bfrops_base_tma_geometry_free(ptr noundef captures(address_is_null) %0, i64 noundef %1) unnamed_addr #3 {
  %.not = icmp eq ptr %0, null
  br i1 %.not, label %22, label %.preheader

.preheader:                                       ; preds = %2
  %.not2 = icmp eq i64 %1, 0
  br i1 %.not2, label %._crit_edge, label %.lr.ph

._crit_edge:                                      ; preds = %pmix_bfrops_base_tma_geometry_destruct.exit, %.preheader
  tail call void @free(ptr noundef nonnull %0) #23
  br label %22

.lr.ph:                                           ; preds = %.preheader, %pmix_bfrops_base_tma_geometry_destruct.exit
  %.01 = phi i64 [ %21, %pmix_bfrops_base_tma_geometry_destruct.exit ], [ 0, %.preheader ]
  %3 = getelementptr inbounds nuw %struct.pmix_geometry, ptr %0, i64 %.01
  %4 = getelementptr inbounds nuw i8, ptr %3, i64 8
  %5 = load ptr, ptr %4, align 8, !tbaa !140
  %.not.i = icmp eq ptr %5, null
  br i1 %.not.i, label %7, label %6

6:                                                ; preds = %.lr.ph
  tail call void @free(ptr noundef nonnull %5) #23
  store ptr null, ptr %4, align 8, !tbaa !140
  br label %7

7:                                                ; preds = %6, %.lr.ph
  %8 = getelementptr inbounds nuw i8, ptr %3, i64 16
  %9 = load ptr, ptr %8, align 8, !tbaa !141
  %.not14.i = icmp eq ptr %9, null
  br i1 %.not14.i, label %11, label %10

10:                                               ; preds = %7
  tail call void @free(ptr noundef nonnull %9) #23
  store ptr null, ptr %8, align 8, !tbaa !141
  br label %11

11:                                               ; preds = %10, %7
  %12 = getelementptr inbounds nuw i8, ptr %3, i64 24
  %13 = load ptr, ptr %12, align 8, !tbaa !142
  %.not15.i = icmp eq ptr %13, null
  br i1 %.not15.i, label %pmix_bfrops_base_tma_geometry_destruct.exit, label %.preheader.i.i

.preheader.i.i:                                   ; preds = %11
  %14 = getelementptr inbounds nuw i8, ptr %3, i64 32
  %15 = load i64, ptr %14, align 8, !tbaa !143
  %.not2.i.i = icmp eq i64 %15, 0
  br i1 %.not2.i.i, label %pmix_bfrops_base_tma_coord_free.exit.i, label %.lr.ph.i.i

.lr.ph.i.i:                                       ; preds = %.preheader.i.i, %pmix_bfrops_base_tma_coord_destruct.exit.i.i
  %.01.i.i = phi i64 [ %20, %pmix_bfrops_base_tma_coord_destruct.exit.i.i ], [ 0, %.preheader.i.i ]
  %16 = getelementptr inbounds nuw %struct.pmix_coord, ptr %13, i64 %.01.i.i
  store i8 0, ptr %16, align 8, !tbaa !125
  %17 = getelementptr inbounds nuw i8, ptr %16, i64 8
  %18 = load ptr, ptr %17, align 8, !tbaa !129
  %.not.i.i.i = icmp eq ptr %18, null
  br i1 %.not.i.i.i, label %pmix_bfrops_base_tma_coord_destruct.exit.i.i, label %19

19:                                               ; preds = %.lr.ph.i.i
  tail call void @free(ptr noundef nonnull %18) #23
  tail call void @llvm.memset.p0.i64(ptr noundef nonnull align 8 dereferenceable(16) %17, i8 0, i64 16, i1 false)
  br label %pmix_bfrops_base_tma_coord_destruct.exit.i.i

pmix_bfrops_base_tma_coord_destruct.exit.i.i:     ; preds = %19, %.lr.ph.i.i
  %20 = add nuw i64 %.01.i.i, 1
  %exitcond.not.i.i = icmp eq i64 %20, %15
  br i1 %exitcond.not.i.i, label %pmix_bfrops_base_tma_coord_free.exit.i, label %.lr.ph.i.i, !llvm.loop !239

pmix_bfrops_base_tma_coord_free.exit.i:           ; preds = %pmix_bfrops_base_tma_coord_destruct.exit.i.i, %.preheader.i.i
  tail call void @free(ptr noundef nonnull %13) #23
  br label %pmix_bfrops_base_tma_geometry_destruct.exit

pmix_bfrops_base_tma_geometry_destruct.exit:      ; preds = %11, %pmix_bfrops_base_tma_coord_free.exit.i
  %21 = add nuw i64 %.01, 1
  %exitcond.not = icmp eq i64 %21, %1
  br i1 %exitcond.not, label %._crit_edge, label %.lr.ph, !llvm.loop !241

22:                                               ; preds = %._crit_edge, %2
  ret void
}